; ModuleID = '7/278.c'
source_filename = "7/278.c"
target datalayout = "e-m:e-p270:32:32-p271:32:32-p272:64:64-i64:64-f80:128-n8:16:32:64-S128"
target triple = "x86_64-pc-linux-gnu"

@.str = private unnamed_addr constant [3 x i8] c"%c\00", align 1

; Function Attrs: noinline nounwind uwtable
define dso_local i32 @main() #0 {
  %1 = alloca i32, align 4
  %2 = alloca [256 x i8], align 16
  %3 = alloca [256 x i8], align 16
  %4 = alloca [256 x i8], align 16
  %5 = alloca i32, align 4
  %6 = alloca i32, align 4
  %7 = alloca i32, align 4
  %8 = alloca i32, align 4
  %9 = alloca i32, align 4
  %10 = alloca i32, align 4
  %11 = alloca i32, align 4
  store i32 0, i32* %1, align 4
  %12 = getelementptr inbounds [256 x i8], [256 x i8]* %2, i64 0, i64 0
  %13 = call i32 (i8*, ...) bitcast (i32 (...)* @gets to i32 (i8*, ...)*)(i8* %12)
  %14 = getelementptr inbounds [256 x i8], [256 x i8]* %3, i64 0, i64 0
  %15 = call i32 (i8*, ...) bitcast (i32 (...)* @gets to i32 (i8*, ...)*)(i8* %14)
  %16 = getelementptr inbounds [256 x i8], [256 x i8]* %4, i64 0, i64 0
  %17 = call i32 (i8*, ...) bitcast (i32 (...)* @gets to i32 (i8*, ...)*)(i8* %16)
  %18 = getelementptr inbounds [256 x i8], [256 x i8]* %2, i64 0, i64 0
  %19 = call i64 @strlen(i8* %18) #3
  %20 = trunc i64 %19 to i32
  store i32 %20, i32* %7, align 4
  %21 = getelementptr inbounds [256 x i8], [256 x i8]* %3, i64 0, i64 0
  %22 = call i64 @strlen(i8* %21) #3
  %23 = trunc i64 %22 to i32
  store i32 %23, i32* %5, align 4
  %24 = getelementptr inbounds [256 x i8], [256 x i8]* %4, i64 0, i64 0
  %25 = call i64 @strlen(i8* %24) #3
  %26 = trunc i64 %25 to i32
  store i32 %26, i32* %6, align 4
  store i32 0, i32* %10, align 4
  store i32 0, i32* %11, align 4
  store i32 0, i32* %8, align 4
  br label %27

27:                                               ; preds = %76, %0
  %28 = load i32, i32* %8, align 4
  %29 = load i32, i32* %7, align 4
  %30 = icmp slt i32 %28, %29
  br i1 %30, label %31, label %79

31:                                               ; preds = %27
  %32 = load i32, i32* %8, align 4
  %33 = sext i32 %32 to i64
  %34 = getelementptr inbounds [256 x i8], [256 x i8]* %2, i64 0, i64 %33
  %35 = load i8, i8* %34, align 1
  %36 = sext i8 %35 to i32
  %37 = getelementptr inbounds [256 x i8], [256 x i8]* %3, i64 0, i64 0
  %38 = load i8, i8* %37, align 16
  %39 = sext i8 %38 to i32
  %40 = icmp eq i32 %36, %39
  br i1 %40, label %41, label %75

41:                                               ; preds = %31
  store i32 1, i32* %9, align 4
  br label %42

42:                                               ; preds = %64, %41
  %43 = load i32, i32* %9, align 4
  %44 = load i32, i32* %5, align 4
  %45 = icmp slt i32 %43, %44
  br i1 %45, label %46, label %67

46:                                               ; preds = %42
  %47 = load i32, i32* %8, align 4
  %48 = load i32, i32* %9, align 4
  %49 = add nsw i32 %47, %48
  %50 = sext i32 %49 to i64
  %51 = getelementptr inbounds [256 x i8], [256 x i8]* %2, i64 0, i64 %50
  %52 = load i8, i8* %51, align 1
  %53 = sext i8 %52 to i32
  %54 = load i32, i32* %9, align 4
  %55 = sext i32 %54 to i64
  %56 = getelementptr inbounds [256 x i8], [256 x i8]* %3, i64 0, i64 %55
  %57 = load i8, i8* %56, align 1
  %58 = sext i8 %57 to i32
  %59 = icmp eq i32 %53, %58
  br i1 %59, label %60, label %63

60:                                               ; preds = %46
  %61 = load i32, i32* %10, align 4
  %62 = add nsw i32 %61, 1
  store i32 %62, i32* %10, align 4
  br label %63

63:                                               ; preds = %60, %46
  br label %64

64:                                               ; preds = %63
  %65 = load i32, i32* %9, align 4
  %66 = add nsw i32 %65, 1
  store i32 %66, i32* %9, align 4
  br label %42

67:                                               ; preds = %42
  %68 = load i32, i32* %10, align 4
  %69 = load i32, i32* %5, align 4
  %70 = sub nsw i32 %69, 1
  %71 = icmp eq i32 %68, %70
  br i1 %71, label %72, label %74

72:                                               ; preds = %67
  %73 = load i32, i32* %8, align 4
  store i32 %73, i32* %11, align 4
  br label %74

74:                                               ; preds = %72, %67
  br label %75

75:                                               ; preds = %74, %31
  br label %76

76:                                               ; preds = %75
  %77 = load i32, i32* %8, align 4
  %78 = add nsw i32 %77, 1
  store i32 %78, i32* %8, align 4
  br label %27

79:                                               ; preds = %27
  %80 = load i32, i32* %11, align 4
  %81 = icmp eq i32 %80, 0
  br i1 %81, label %82, label %85

82:                                               ; preds = %79
  %83 = getelementptr inbounds [256 x i8], [256 x i8]* %2, i64 0, i64 0
  %84 = call i32 @puts(i8* %83)
  br label %134

85:                                               ; preds = %79
  store i32 0, i32* %8, align 4
  br label %86

86:                                               ; preds = %97, %85
  %87 = load i32, i32* %8, align 4
  %88 = load i32, i32* %11, align 4
  %89 = icmp slt i32 %87, %88
  br i1 %89, label %90, label %100

90:                                               ; preds = %86
  %91 = load i32, i32* %8, align 4
  %92 = sext i32 %91 to i64
  %93 = getelementptr inbounds [256 x i8], [256 x i8]* %2, i64 0, i64 %92
  %94 = load i8, i8* %93, align 1
  %95 = sext i8 %94 to i32
  %96 = call i32 (i8*, ...) @printf(i8* getelementptr inbounds ([3 x i8], [3 x i8]* @.str, i64 0, i64 0), i32 %95)
  br label %97

97:                                               ; preds = %90
  %98 = load i32, i32* %8, align 4
  %99 = add nsw i32 %98, 1
  store i32 %99, i32* %8, align 4
  br label %86

100:                                              ; preds = %86
  store i32 0, i32* %8, align 4
  br label %101

101:                                              ; preds = %112, %100
  %102 = load i32, i32* %8, align 4
  %103 = load i32, i32* %6, align 4
  %104 = icmp slt i32 %102, %103
  br i1 %104, label %105, label %115

105:                                              ; preds = %101
  %106 = load i32, i32* %8, align 4
  %107 = sext i32 %106 to i64
  %108 = getelementptr inbounds [256 x i8], [256 x i8]* %4, i64 0, i64 %107
  %109 = load i8, i8* %108, align 1
  %110 = sext i8 %109 to i32
  %111 = call i32 (i8*, ...) @printf(i8* getelementptr inbounds ([3 x i8], [3 x i8]* @.str, i64 0, i64 0), i32 %110)
  br label %112

112:                                              ; preds = %105
  %113 = load i32, i32* %8, align 4
  %114 = add nsw i32 %113, 1
  store i32 %114, i32* %8, align 4
  br label %101

115:                                              ; preds = %101
  %116 = load i32, i32* %11, align 4
  %117 = load i32, i32* %5, align 4
  %118 = add nsw i32 %116, %117
  store i32 %118, i32* %8, align 4
  br label %119

119:                                              ; preds = %130, %115
  %120 = load i32, i32* %8, align 4
  %121 = load i32, i32* %7, align 4
  %122 = icmp slt i32 %120, %121
  br i1 %122, label %123, label %133

123:                                              ; preds = %119
  %124 = load i32, i32* %8, align 4
  %125 = sext i32 %124 to i64
  %126 = getelementptr inbounds [256 x i8], [256 x i8]* %2, i64 0, i64 %125
  %127 = load i8, i8* %126, align 1
  %128 = sext i8 %127 to i32
  %129 = call i32 (i8*, ...) @printf(i8* getelementptr inbounds ([3 x i8], [3 x i8]* @.str, i64 0, i64 0), i32 %128)
  br label %130

130:                                              ; preds = %123
  %131 = load i32, i32* %8, align 4
  %132 = add nsw i32 %131, 1
  store i32 %132, i32* %8, align 4
  br label %119

133:                                              ; preds = %119
  br label %134

134:                                              ; preds = %133, %82
  ret i32 0
}

declare dso_local i32 @gets(...) #1

; Function Attrs: nounwind readonly
declare dso_local i64 @strlen(i8*) #2

declare dso_local i32 @puts(i8*) #1

declare dso_local i32 @printf(i8*, ...) #1


!llvm.module.flags = !{!0}
!llvm.ident = !{!1}

!0 = !{i32 1, !"wchar_size", i32 4}
!1 = !{!"clang version 10.0.0-4ubuntu1 "}
